target datalayout = "e-m:e-p270:32:32-p271:32:32-p272:64:64-i64:64-i128:128-f80:128-n8:16:32:64-S128"
target triple = "x86_64-pc-linux-gnu"

%struct.config_bool = type { %struct.config_generic, ptr, i8, ptr, ptr, ptr, i8, ptr }
%struct.config_generic = type { ptr, i32, i32, ptr, ptr, i32, i32, i32, i32, i32, i32, i32, i32, i32, ptr, ptr, %struct.dlist_node, %struct.slist_node, %struct.slist_node, ptr, ptr, i32 }
%struct.dlist_node = type { ptr, ptr }
%struct.slist_node = type { ptr }

; Function Attrs: nounwind uwtable
define dso_local void @DefineCustomBoolVariable(ptr noundef nonnull %0, ptr noundef %1, ptr noundef %2, ptr noundef nonnull %3, i1 noundef zeroext %4, i32 noundef %5, i32 noundef %6, ptr noundef %7, ptr noundef %8, ptr noundef %9) #0 {
  %11 = alloca ptr, align 8
  %12 = alloca ptr, align 8
  %13 = alloca ptr, align 8
  %14 = alloca ptr, align 8
  %15 = alloca i8, align 1
  %16 = alloca i32, align 4
  %17 = alloca i32, align 4
  %18 = alloca ptr, align 8
  %19 = alloca ptr, align 8
  %20 = alloca ptr, align 8
  %21 = alloca ptr, align 8
  store ptr %0, ptr %11, align 8
  store ptr %1, ptr %12, align 8
  store ptr %2, ptr %13, align 8
  store ptr %3, ptr %14, align 8
  %22 = zext i1 %4 to i8
  store i8 %22, ptr %15, align 1
  store i32 %5, ptr %16, align 4
  store i32 %6, ptr %17, align 4
  store ptr %7, ptr %18, align 8
  store ptr %8, ptr %19, align 8
  store ptr %9, ptr %20, align 8
  call void @llvm.lifetime.start.p0(i64 8, ptr %21) #16
  %23 = load ptr, ptr %11, align 8
  %24 = load ptr, ptr %12, align 8
  %25 = load ptr, ptr %13, align 8
  %26 = load i32, ptr %16, align 4
  %27 = load i32, ptr %17, align 4
  %28 = call ptr @init_custom_variable(ptr noundef %23, ptr noundef %24, ptr noundef %25, i32 noundef %26, i32 noundef %27, i32 noundef 0, i64 noundef 200)
  store ptr %28, ptr %21, align 8
  %29 = load ptr, ptr %14, align 8
  %30 = load ptr, ptr %21, align 8
  %31 = getelementptr inbounds nuw %struct.config_bool, ptr %30, i32 0, i32 1
  store ptr %29, ptr %31, align 8
  %32 = load i8, ptr %15, align 1, !range !4, !noundef !5
  %33 = trunc i8 %32 to i1
  %34 = load ptr, ptr %21, align 8
  %35 = getelementptr inbounds nuw %struct.config_bool, ptr %34, i32 0, i32 2
  %36 = zext i1 %33 to i8
  store i8 %36, ptr %35, align 8
  %37 = load i8, ptr %15, align 1, !range !4, !noundef !5
  %38 = trunc i8 %37 to i1
  %39 = load ptr, ptr %21, align 8
  %40 = getelementptr inbounds nuw %struct.config_bool, ptr %39, i32 0, i32 6
  %41 = zext i1 %38 to i8
  store i8 %41, ptr %40, align 8
  %42 = load ptr, ptr %18, align 8
  %43 = load ptr, ptr %21, align 8
  %44 = getelementptr inbounds nuw %struct.config_bool, ptr %43, i32 0, i32 3
  store ptr %42, ptr %44, align 8
  %45 = load ptr, ptr %19, align 8
  %46 = load ptr, ptr %21, align 8
  %47 = getelementptr inbounds nuw %struct.config_bool, ptr %46, i32 0, i32 4
  store ptr %45, ptr %47, align 8
  %48 = load ptr, ptr %20, align 8
  %49 = load ptr, ptr %21, align 8
  %50 = getelementptr inbounds nuw %struct.config_bool, ptr %49, i32 0, i32 5
  store ptr %48, ptr %50, align 8
  %51 = load ptr, ptr %21, align 8
  %52 = getelementptr inbounds nuw %struct.config_bool, ptr %51, i32 0, i32 0
  call void @define_custom_variable(ptr noundef %52)
  call void @llvm.lifetime.end.p0(i64 8, ptr %21) #16
  ret void
}