; Function Attrs: nounwind uwtable
define dso_local void @DefineCustomBoolVariable(ptr noundef nonnull readonly captures(none) %0, ptr noundef %1, ptr noundef %2, ptr noundef nonnull %3, i1 noundef zeroext %4, i32 noundef %5, i32 noundef %6, ptr noundef %7, ptr noundef %8, ptr noundef %9) local_unnamed_addr #0 {
  %11 = zext i1 %4 to i8
  %12 = tail call fastcc ptr @init_custom_variable(ptr noundef %0, ptr noundef %1, ptr noundef %2, i32 noundef %5, i32 noundef %6, i32 noundef 0, i64 noundef 200)
  %13 = getelementptr inbounds nuw i8, ptr %12, i64 144
  store ptr %3, ptr %13, align 8
  %14 = getelementptr inbounds nuw i8, ptr %12, i64 152
  store i8 %11, ptr %14, align 8
  %15 = getelementptr inbounds nuw i8, ptr %12, i64 184
  store i8 %11, ptr %15, align 8
  %16 = getelementptr inbounds nuw i8, ptr %12, i64 160
  store ptr %7, ptr %16, align 8
  %17 = getelementptr inbounds nuw i8, ptr %12, i64 168
  store ptr %8, ptr %17, align 8
  %18 = getelementptr inbounds nuw i8, ptr %12, i64 176
  store ptr %9, ptr %18, align 8
  tail call fastcc void @define_custom_variable(ptr noundef %12)
  ret void
}